(lp0
(lp1
F45.72560119628906
aF66.62999725341797
aF84.0
aF90.08000183105469
aF103.51000213623047
aF113.43000030517578
aF125.38999938964844
aF132.50999450683594
aF139.8000030517578
aF145.05999755859375
aF89.04000091552734
aF97.20999908447266
aF105.08999633789062
aF112.08999633789062
aF114.72000122070312
aF123.18000030517578
aF102.45999908447266
aF122.30000305175781
aF139.22999572753906
aF157.89999389648438
aF179.5
aF197.00999450683594
aF210.42999267578125
aF219.77000427246094
aF222.97999572753906
aF80.86000061035156
aF101.56999969482422
aF119.95999908447266
aF140.08999633789062
aF154.10000610351562
aF163.36000061035156
aF170.3699951171875
aF63.029998779296875
aF76.72000122070312
aF81.68000030517578
aF79.3499984741211
aF77.01000213623047
aF79.63999938964844
aF77.62000274658203
aF90.16999816894531
aF107.8499984741211
aF118.3499984741211
aF131.77999877929688
aF147.8300018310547
aF166.7899932861328
aF179.0500030517578
aF190.13999938964844
aF104.76000213623047
aF113.80999755859375
aF130.02999877929688
aF143.74000549316406
aF158.0399932861328
aF160.9600067138672
aF163.5800018310547
aF83.75
aF91.62999725341797
aF100.37999725341797
aF61.220001220703125
aF68.4000015258789
aF66.2699966430664
aF53.720001220703125
aF64.80999755859375
aF66.55999755859375
aF68.0199966430664
aF81.44000244140625
aF89.61000061035156
aF96.31999969482422
aF100.69999694824219
aF71.9000015258789
aF65.0999984741211
aF50.79999923706055
aF33.290000915527344
aF37.66999816894531
aF59.2599983215332
aF57.5099983215332
aF62.18000030517578
aF58.970001220703125
aF56.04999923706055
aF51.68000030517578
aF49.34000015258789
aF48.7599983215332
aF49.04999923706055
aF78.9000015258789
aF88.1500015258789
aF98.94999694824219
aF108.87000274658203
aF122.58999633789062
aF119.95999908447266
aF116.45999908447266
aF98.94999694824219
aF107.41000366210938
aF111.79000091552734
aF123.45999908447266
aF132.8000030517578
aF91.73999786376953
aF105.16999816894531
aF111.87999725341797
aF122.58999633789062
aF131.92999267578125
aF71.13999938964844
aF80.7699966430664
aF84.55999755859375
aF86.30999755859375
aF87.7699966430664
aF90.9800033569336
aF101.19999694824219
aF108.77999877929688
aF80.7699966430664
aF91.27999877929688
aF104.11000061035156
aF115.19999694824219
aF135.0500030517578
aF166.55999755859375
aF113.16000366210938
aF129.5
aF144.08999633789062
aF43.79999923706055
aF47.880001068115234
aF54.88999938964844
aF56.93000030517578
aF54.59000015258789
aF49.04999923706055
aF49.34000015258789
aF41.75
aF47.880001068115234
aF49.34000015258789
aF55.7599983215332
aF32.220001220703125
aF19.299999237060547
aF3.5299999713897705
aF-4.639999866485596
aF-10.470000267028809
aF-16.600000381469727
aF-25.360000610351562
aF5.579999923706055
aF-13.680000305175781
aF-35.189998626708984
aF-49.4900016784668
aF-55.33000183105469
aF-69.91999816894531
aF-83.91999816894531
aF27.260000228881836
aF23.3799991607666
aF20.170000076293945
aF9.369999885559082
aF2.950000047683716
aF-2.009999990463257
aF-2.009999990463257
aF26.0
aF32.709999084472656
aF34.16999816894531
aF24.6299991607666
aF25.399999618530273
aF21.020000457763672
aF12.270000457763672
aF1.1799999475479126
aF-4.070000171661377
aF-0.2800000011920929
aF27.149999618530273
aF25.860000610351562
aF22.360000610351562
aF15.359999656677246
aF28.610000610351562
aF29.06999969482422
aF29.65999984741211
aF30.530000686645508
aF26.450000762939453
aF24.110000610351562
aF26.450000762939453
aF30.81999969482422
aF32.9900016784668
aF36.779998779296875
aF37.65999984741211
aF40.279998779296875
aF36.779998779296875
aF38.529998779296875
aF50.790000915527344
aF20.25
aF10.039999961853027
aF2.1600000858306885
aF-2.799999952316284
aF-10.390000343322754
aF-16.139999389648438
aF-22.559999465942383
aF-24.889999389648438
aF-30.139999389648438
aF-46.4900016784668
aF-17.979999542236328
aF-26.149999618530273
aF-35.689998626708984
aF-44.7400016784668
aF-54.65999984741211
aF38.70000076293945
aF33.45000076293945
aF39.58000183105469
aF42.5
aF49.209999084472656
aF55.630001068115234
aF65.26000213623047
aF68.58000183105469
aF69.16000366210938
aF69.44999694824219
aF43.08000183105469
aF49.5
aF50.380001068115234
aF56.209999084472656
aF60.880001068115234
aF25.34000015258789
aF13.670000076293945
aF3.1600000858306885
aF-7.639999866485596
aF-25.440000534057617
aF-44.9900016784668
aF-61.06999969482422
aF-82.37000274658203
aF-6.789999961853027
aF-17.59000015258789
aF-28.969999313354492
aF-36.849998474121094
aF-39.77000045776367
aF-42.689998626708984
aF-50.86000061035156
aF-61.36000061035156
aF-66.91000366210938
aF33.97999954223633
aF39.529998779296875
aF48.279998779296875
aF47.70000076293945
aF49.7400016784668
aF55.290000915527344
aF65.79000091552734
aF72.5
aF85.05000305175781
aF89.43000030517578
aF26.690000534057617
aF24.940000534057617
aF19.389999389648438
aF3.3399999141693115
aF-1.0299999713897705
aF-9.199999809265137
aF15.890000343322754
aF3.630000114440918
aF-5.119999885559082
aF-21.459999084472656
aF4.510000228881836
aF-8.90999984741211
aF-22.920000076293945
aF36.31999969482422
aF28.149999618530273
aF19.68000030517578
aF27.559999465942383
aF17.93000030517578
aF1.2999999523162842
aF-15.039999961853027
aF16.770000457763672
aF7.429999828338623
aF-12.40999984741211
aF-25.549999237060547
aF-29.049999237060547
aF-40.720001220703125
aF-52.599998474121094
aF-60.47999954223633
aF6.639999866485596
aF43.41999816894531
aF40.08000183105469
aF35.709999084472656
aF32.36000061035156
aF28.25
aF26.270000457763672
aF26.700000762939453
aF27.209999084472656
aF27.729999542236328
aF25.93000030517578
aF25.40999984741211
aF19.6299991607666
aF8.109999656677246
aF-10.029999732971191
aF-21.100000381469727
aF-26.950000762939453
aF-34.849998474121094
aF-27.8700008392334
aF-46.88999938964844
aF-65.61000061035156
aF-86.01000213623047
aF-103.8499984741211
aF-124.31999969482422
aF-146.25999450683594
aF0.5
aF-2.7200000286102295
aF2.8399999141693115
aF10.149999618530273
aF11.90999984741211
aF12.029999732971191
aF1.3799999952316284
aF-17.639999389648438
aF-35.77000045776367
aF-52.439998626708984
aF-67.94999694824219
aF2.9600000381469727
aF-10.199999809265137
aF-23.360000610351562
aF-33.88999938964844
aF-43.54999923706055
aF-59.459999084472656
aF-70.58000183105469
aF26.190000534057617
aF26.959999084472656
aF29.010000228881836
aF39.0099983215332
aF48.54999923706055
aF58.779998779296875
aF72.52999877929688
aF89.5
aF97.4000015258789
aF111.08999633789062
aF116.94000244140625
aF122.48999786376953
aF126.05000305175781
aF130.44000244140625
aF61.119998931884766
aF73.98999786376953
aF85.69999694824219
aF101.19999694824219
aF111.44000244140625
aF49.83000183105469
aF63.290000915527344
aF78.20999908447266
aF93.70999908447266
aF112.72000122070312
aF124.30000305175781
aF133.6699981689453
aF145.66000366210938
aF158.24000549316406
aF29.010000228881836
aF30.809999465942383
aF31.06999969482422
aF23.399999618530273
aF0.8700000047683716
aF-11.40999984741211
aF-0.0
aF11.989999771118164
aF30.040000915527344
aF30.100000381469727
aF32.16999816894531
aF32.16999816894531
aF40.650001525878906
aF42.119998931884766
aF25.739999771118164
aF19.299999237060547
aF20.18000030517578
aF22.809999465942383
aF20.18000030517578
aF33.900001525878906
aF38.869998931884766
aF42.380001068115234
aF49.70000076293945
aF58.18000030517578
aF67.54000091552734
aF83.6500015258789
aF28.239999771118164
aF24.1299991607666
aF26.700000762939453
aF23.690000534057617
aF17.260000228881836
aF11.989999771118164
aF2.9200000762939453
aF-7.900000095367432
aF25.93000030517578
aF25.93000030517578
aF24.899999618530273
aF25.15999984741211
aF26.700000762939453
aF26.959999084472656
aF24.389999389648438
aF25.15999984741211
aF23.8700008392334
aF21.559999465942383
aF20.010000228881836
aF17.190000534057617
aF19.5
aF16.15999984741211
aF11.529999732971191
aF11.010000228881836
aF7.670000076293945
aF6.900000095367432
aF5.099999904632568
aF-3.130000114440918
aF-6.989999771118164
aF-9.039999961853027
aF-9.8100004196167
aF-10.579999923706055
aF-14.699999809265137
aF-18.479999542236328
aF-23.110000610351562
aF-35.709999084472656
aF-43.709999084472656
aF-47.060001373291016
aF-52.20000076293945
aF-56.060001373291016
aF-59.13999938964844
aF-61.709999084472656
aF-58.369998931884766
aF-57.09000015258789
aF-57.599998474121094
aF-60.689998626708984
aF-70.19999694824219
aF-80.83999633789062
aF-87.0199966430664
aF-91.38999938964844
aF-93.62000274658203
aF-97.22000122070312
aF-101.08000183105469
aF-110.5999984741211
aF-117.27999877929688
aF-130.91000366210938
aF-141.97000122070312
aF-115.22000122070312
aF-109.30999755859375
aF-119.8499984741211
aF-133.22000122070312
aF-141.4499969482422
aF-151.99000549316406
aF-17.920000076293945
aF-17.670000076293945
aF-20.239999771118164
aF-27.18000030517578
aF-20.239999771118164
aF-26.670000076293945
aF-17.920000076293945
aF-15.869999885559082
aF-8.40999984741211
aF-5.840000152587891
aF-1.7200000286102295
aF1.100000023841858
aF3.930000066757202
aF18.510000228881836
aF15.9399995803833
aF15.430000305175781
aF16.709999084472656
aF16.200000762939453
aF16.200000762939453
aF18.260000228881836
aF20.309999465942383
aF23.139999389648438
aF28.280000686645508
aF28.540000915527344
aF27.770000457763672
aF27.0
aF26.479999542236328
aF22.110000610351562
aF19.030000686645508
aF15.430000305175781
aF13.630000114440918
aF9.260000228881836
aF30.299999237060547
aF34.15999984741211
aF35.959999084472656
aF33.43000030517578
aF40.88999938964844
aF48.599998474121094
aF53.47999954223633
aF60.68000030517578
aF68.4000015258789
aF75.33999633789062
aF78.43000030517578
aF84.08000183105469
aF70.19999694824219
aF66.33999633789062
aF72.7699966430664
aF12.0
aF5.059999942779541
aF2.2100000381469727
aF1.190000057220459
aF-0.8700000047683716
aF-0.8700000047683716
aF-1.1299999952316284
aF-3.940000057220459
aF-8.569999694824219
aF-10.010000228881836
aF-11.289999961853027
aF-17.670000076293945
aF-26.40999984741211
aF-33.86000061035156
aF-40.029998779296875
aF-43.88999938964844
aF-51.13999938964844
aF-53.709999084472656
aF-58.34000015258789
aF-62.20000076293945
aF-69.13999938964844
aF-78.4000015258789
aF-86.62999725341797
aF-91.26000213623047
aF-96.13999938964844
aF-103.61000061035156
aF-110.30000305175781
aF-113.63999938964844
aF-115.19000244140625
aF-134.72999572753906
aF-76.44000244140625
aF-69.23999786376953
aF-66.41000366210938
aF-65.63999938964844
aF-65.12000274658203
aF-63.79999923706055
aF-55.56999969482422
aF-60.09000015258789
aF-53.91999816894531
aF-49.290000915527344
aF-42.86000061035156
aF-38.529998779296875
aF-30.299999237060547
aF-23.6200008392334
aF-18.729999542236328
aF-11.270000457763672
aF-9.8100004196167
aF-8.270000457763672
aF-7.239999771118164
aF-8.710000038146973
aF-10.510000228881836
aF-10.770000457763672
aF-10.359999656677246
aF-1.3700000047683716
aF6.340000152587891
aF13.279999732971191
aF18.170000076293945
aF25.110000610351562
aF22.540000915527344
aF23.56999969482422
aF25.110000610351562
aF28.200000762939453
aF31.030000686645508
aF34.369998931884766
aF36.16999816894531
aF40.029998779296875
aF44.90999984741211
aF62.13999938964844
aF1.6100000143051147
aF8.8100004196167
aF5.730000019073486
aF10.100000381469727
aF13.699999809265137
aF20.639999389648438
aF25.139999389648438
aF30.110000610351562
aF29.81999969482422
aF30.989999771118164
aF35.66999816894531
aF19.0
aF28.940000534057617
aF29.530000686645508
aF33.630001068115234
aF34.5
aF44.5
aF51.52000045776367
aF17.940000534057617
aF30.229999542236328
aF41.95000076293945
aF52.47999954223633
aF72.94999694824219
aF21.860000610351562
aF10.770000457763672
aF3.4700000286102295
aF31.489999771118164
aF40.529998779296875
aF57.65999984741211
aF75.16999816894531
aF78.95999908447266
aF85.08999633789062
aF95.8499984741211
aF108.4000015258789
aF123.27999877929688
aF95.33000183105469
aF106.12999725341797
aF118.97000122070312
aF128.88999938964844
aF138.22999572753906
aF64.9800033569336
aF62.36000061035156
aF60.900001525878906
aF60.900001525878906
aF63.22999954223633
aF55.939998626708984
aF75.19999694824219
aF94.45999908447266
aF115.47000122070312
aF132.72999572753906
aF147.1699981689453
aF162.63999938964844
aF35.40999984741211
aF36.86000061035156
aF36.279998779296875
aF36.56999969482422
aF32.20000076293945
aF34.2400016784668
aF27.229999542236328
aF21.0
aF19.829999923706055
aF18.65999984741211
aF18.3700008392334
aF9.90999984741211
aF16.329999923706055
aF0.2800000011920929
aF-6.730000019073486
aF-19.270000457763672
aF-2.930000066757202
aF-14.600000381469727
aF-9.9399995803833
aF40.54999923706055
aF56.0099983215332
aF65.05999755859375
aF81.69000244140625
aF102.41000366210938
aF116.41999816894531
aF132.75999450683594
aF149.82000732421875
aF160.91000366210938
aF66.44999694824219
aF85.12000274658203
aF105.83999633789062
aF119.2699966430664
aF138.22999572753906
aF153.41000366210938
aF165.3699951171875
aF179.9600067138672
aF193.67999267578125
aF56.61000061035156
aF64.19999694824219
aF71.5
aF75.58000183105469
aF85.5
aF23.139999389648438
aF9.3100004196167
aF-9.369999885559082
aF-24.829999923706055
aF-34.75
aF-45.84000015258789
aF6.980000019073486
aF-8.489999771118164
aF-7.320000171661377
aa(lp2
F18.343700408935547
aF21.190000534057617
aF19.940000534057617
aF29.010000228881836
aF41.4900016784668
aF51.7400016784668
aF66.47000122070312
aF81.45999908447266
aF96.83000183105469
aF110.5999984741211
aF20.209999084472656
aF20.209999084472656
aF11.880000114440918
aF8.359999656677246
aF-4.769999980926514
aF-15.979999542236328
aF22.770000457763672
aF16.360000610351562
aF6.119999885559082
aF-2.8499999046325684
aF-6.690000057220459
aF-13.09000015258789
aF-17.260000228881836
aF-31.670000076293945
aF-44.15999984741211
aF20.940000534057617
aF27.350000381469727
aF28.309999465942383
aF28.950000762939453
aF33.43000030517578
aF40.70000076293945
aF50.939998626708984
aF18.3799991607666
aF15.65999984741211
aF9.260000228881836
aF5.099999904632568
aF-15.399999618530273
aF-35.88999938964844
aF18.059999465942383
aF12.619999885559082
aF2.259999990463257
aF-1.909999966621399
aF-10.869999885559082
aF-22.719999313354492
aF-30.719999313354492
aF-36.810001373291016
aF-47.380001068115234
aF-2.109999895095825
aF-16.84000015258789
aF-31.360000610351562
aF-39.369998931884766
aF-48.65999984741211
aF-57.939998626708984
aF-65.94999694824219
aF21.899999618530273
aF29.59000015258789
aF36.310001373291016
aF14.25
aF10.670000076293945
aF9.069999694824219
aF13.229999542236328
aF4.590000152587891
aF-0.2199999988079071
aF6.510000228881836
aF8.75
aF14.510000228881836
aF20.920000076293945
aF13.869999885559082
aF0.7400000095367432
aF-21.030000686645508
aF-37.75
aF-50.869998931884766
aF-61.7599983215332
aF-38.06999969482422
aF-51.189998626708984
aF-67.52999877929688
aF-84.5
aF-100.83000183105469
aF-111.45999908447266
aF-128.75
aF-143.8000030517578
aF-157.25
aF-19.110000610351562
aF-36.08000183105469
aF-43.77000045776367
aF-53.369998931884766
aF-64.9000015258789
aF-72.91000366210938
aF-87.30999755859375
aF-46.650001525878906
aF-60.41999816894531
aF-71.62000274658203
aF-81.29000091552734
aF-93.77999877929688
aF-28.399999618530273
aF-35.439998626708984
aF-39.599998474121094
aF-44.72999954223633
aF-48.25
aF11.6899995803833
aF-0.1599999964237213
aF-17.510000228881836
aF-31.600000381469727
aF-38.33000183105469
aF-55.29999923706055
aF-72.01000213623047
aF-102.11000061035156
aF11.369999885559082
aF22.260000228881836
aF31.540000915527344
aF39.22999954223633
aF40.83000183105469
aF41.150001525878906
aF42.75
aF56.52000045776367
aF65.80999755859375
aF10.029999732971191
aF-1.1799999475479126
aF-13.989999771118164
aF-24.229999542236328
aF-39.599998474121094
aF-49.209999084472656
aF-57.540000915527344
aF-71.62000274658203
aF-89.62000274658203
aF-103.06999969482422
aF-57.540000915527344
aF11.390000343322754
aF14.4399995803833
aF24.290000915527344
aF32.939998626708984
aF33.2599983215332
aF34.86000061035156
aF36.459999084472656
aF26.610000610351562
aF32.689998626708984
aF46.709999084472656
aF55.349998474121094
aF61.119998931884766
aF62.400001525878906
aF64.63999938964844
aF4.659999847412109
aF-0.75
aF-2.0299999713897705
aF-4.909999847412109
aF1.1699999570846558
aF6.300000190734863
aF1.4900000095367432
aF-4.909999847412109
aF-4.590000152587891
aF-8.109999656677246
aF0.18000000715255737
aF-11.710000038146973
aF-26.5
aF-42.2599983215332
aF-50.900001525878906
aF-67.55000305175781
aF-84.83999633789062
aF-18.110000610351562
aF-23.139999389648438
aF-34.349998474121094
aF-46.52000045776367
aF-26.440000534057617
aF-40.119998931884766
aF-50.36000061035156
aF-59.970001220703125
aF-71.18000030517578
aF-82.37999725341797
aF-98.45999908447266
aF-113.51000213623047
aF-42.77000045776367
aF-59.4900016784668
aF-76.45999908447266
aF-93.11000061035156
aF-107.19999694824219
aF-125.88999938964844
aF-134.22000122070312
aF-4.940000057220459
aF-15.829999923706055
aF-29.920000076293945
aF-43.689998626708984
aF-56.560001373291016
aF-67.44999694824219
aF-84.73999786376953
aF-99.79000091552734
aF-110.36000061035156
aF-114.5199966430664
aF-64.56999969482422
aF-72.88999938964844
aF-84.0999984741211
aF-100.11000061035156
aF-113.87999725341797
aF5.670000076293945
aF-11.9399995803833
aF-26.989999771118164
aF-42.22999954223633
aF-50.54999923706055
aF-60.79999923706055
aF-77.12999725341797
aF-90.36000061035156
aF-104.12999725341797
aF-115.33999633789062
aF-40.7599983215332
aF-55.810001373291016
aF-66.37000274658203
aF-80.97000122070312
aF-96.0199966430664
aF-23.459999084472656
aF-37.869998931884766
aF-49.709999084472656
aF-57.400001525878906
aF-68.93000030517578
aF-71.48999786376953
aF-71.86000061035156
aF-78.91000366210938
aF-59.689998626708984
aF-69.94000244140625
aF-82.11000061035156
aF-95.55999755859375
aF-114.44999694824219
aF-128.22000122070312
aF-140.07000732421875
aF-158.0
aF-181.75999450683594
aF-5.269999980926514
aF-15.510000228881836
aF-43.04999923706055
aF-60.72999954223633
aF-79.62000274658203
aF-93.38999938964844
aF-106.26000213623047
aF-124.19000244140625
aF-142.44000244140625
aF-159.16000366210938
aF-13.34000015258789
aF-21.979999542236328
aF-42.790000915527344
aF-63.93000030517578
aF-78.33999633789062
aF-98.58000183105469
aF-22.299999237060547
aF-35.75
aF-50.79999923706055
aF-64.25
aF-28.709999084472656
aF-28.709999084472656
aF-24.860000610351562
aF16.190000534057617
aF16.190000534057617
aF19.06999969482422
aF20.670000076293945
aF24.829999923706055
aF31.239999771118164
aF36.68000030517578
aF20.030000686645508
aF7.539999961853027
aF-5.269999980926514
aF-16.469999313354492
aF-30.950000762939453
aF-46.0
aF-54.63999938964844
aF-63.93000030517578
aF10.420000076293945
aF31.549999237060547
aF46.88999938964844
aF58.81999969482422
aF73.87000274658203
aF97.16999816894531
aF122.51000213623047
aF142.66000366210938
aF157.49000549316406
aF173.69000244140625
aF192.42999267578125
aF196.6999969482422
aF200.39999389648438
aF205.32000732421875
aF208.17999267578125
aF208.77000427246094
aF209.08999633789062
aF212.91000366210938
aF211.0500030517578
aF218.0500030517578
aF227.91000366210938
aF228.92999267578125
aF232.75
aF233.0
aF227.91000366210938
aF210.72999572753906
aF224.08999633789062
aF237.4600067138672
aF241.58999633789062
aF254.32000732421875
aF200.0800018310547
aF202.13999938964844
aF204.36000061035156
aF205.32000732421875
aF203.72999572753906
aF199.58999633789062
aF196.5800018310547
aF183.22000122070312
aF169.85000610351562
aF155.5399932861328
aF142.80999755859375
aF126.66000366210938
aF115.83999633789062
aF206.07000732421875
aF228.85000610351562
aF247.32000732421875
aF257.1700134277344
aF259.8399963378906
aF257.989990234375
aF248.75999450683594
aF237.6300048828125
aF225.5399932861328
aF213.8000030517578
aF202.66000366210938
aF190.57000732421875
aF177.5399932861328
aF161.30999755859375
aF264.6099853515625
aF269.3800048828125
aF277.3399963378906
aF284.0199890136719
aF301.260009765625
aF262.8999938964844
aF270.5400085449219
aF271.80999755859375
aF270.8599853515625
aF274.0400085449219
aF278.239990234375
aF277.2799987792969
aF280.4599914550781
aF281.1000061035156
aF262.7200012207031
aF282.32000732421875
aF297.0899963378906
aF299.45001220703125
aF290.8599853515625
aF295.95001220703125
aF288.0
aF291.17999267578125
aF308.2300109863281
aF315.3999938964844
aF319.5
aF311.2300109863281
aF296.9100036621094
aF285.7699890136719
aF328.4100036621094
aF337.95001220703125
aF353.2300109863281
aF352.2699890136719
aF359.2699890136719
aF315.7200012207031
aF324.94000244140625
aF334.1700134277344
aF343.7200012207031
aF355.489990234375
aF372.6700134277344
aF384.4700012207031
aF324.4200134277344
aF343.45001220703125
aF362.5400085449219
aF369.4700012207031
aF377.1099853515625
aF385.3800048828125
aF398.4200134277344
aF409.8800048828125
aF372.4800109863281
aF385.8900146484375
aF405.2099914550781
aF425.95001220703125
aF441.6300048828125
aF462.6499938964844
aF478.55999755859375
aF492.82000732421875
aF514.1300048828125
aF531.510009765625
aF554.52001953125
aF571.0599975585938
aF587.530029296875
aF602.02001953125
aF617.989990234375
aF637.5900268554688
aF661.7899780273438
aF683.9500122070312
aF701.0499877929688
aF722.0700073242188
aF742.2999877929688
aF762.1900024414062
aF781.5
aF799.1699829101562
aF822.1799926757812
aF844.1099853515625
aF853.489990234375
aF873.9400024414062
aF886.4400024414062
aF899.5
aF912.5700073242188
aF920.8699951171875
aF930.530029296875
aF947.2899780273438
aF928.5399780273438
aF948.7100219726562
aF968.0800170898438
aF979.72998046875
aF996.489990234375
aF1011.8900146484375
aF1026.0899658203125
aF1041.7099609375
aF1056.8299560546875
aF1070.1800537109375
aF1079.550048828125
aF1088.989990234375
aF1094.0999755859375
aF1100.6300048828125
aF1103.469970703125
aF1100.3499755859375
aF1092.9599609375
aF1099.5
aF1108.5899658203125
aF1116.260009765625
aF1130.4599609375
aF863.1400146484375
aF884.1599731445312
aF904.3900146484375
aF920.5800170898438
aF927.4000244140625
aF930.530029296875
aF919.72998046875
aF927.4000244140625
aF944.1599731445312
aF960.4099731445312
aF973.760009765625
aF989.1599731445312
aF1001.0900268554688
aF603.2100219726562
aF626.5
aF647.8099975585938
aF660.8800048828125
aF675.0800170898438
aF695.8800048828125
aF715.1900024414062
aF732.8599853515625
aF750.1900024414062
aF767.010009765625
aF786.8900146484375
aF813.0900268554688
aF831.8400268554688
aF853.7100219726562
aF870.530029296875
aF887.2899780273438
aF908.0800170898438
aF922.0
aF935.3499755859375
aF869.77001953125
aF893.0700073242188
aF916.6500244140625
aF940.1300048828125
aF959.72998046875
aF978.5399780273438
aF990.1799926757812
aF1004.3900146484375
aF1015.8099975585938
aF1022.3400268554688
aF1031.1500244140625
aF1027.739990234375
aF1025.469970703125
aF1035.68994140625
aF1033.989990234375
aF666.8800048828125
aF699.8300170898438
aF720.6400146484375
aF736.8300170898438
aF755.8599853515625
aF775.239990234375
aF795.4099731445312
aF820.97998046875
aF837.4600219726562
aF854.0900268554688
aF873.969970703125
aF887.9600219726562
aF907.5700073242188
aF922.3300170898438
aF939.0900268554688
aF957.27001953125
aF974.75
aF988.9600219726562
aF1007.989990234375
aF1021.9099731445312
aF1046.06005859375
aF1067.699951171875
aF1083.3299560546875
aF1102.3599853515625
aF1113.1600341796875
aF1131.780029296875
aF1143.7099609375
aF1153.6500244140625
aF1168.4200439453125
aF1180.3499755859375
aF1067.1800537109375
aF1079.6800537109375
aF1092.4599609375
aF1106.0999755859375
aF1119.72998046875
aF1131.0799560546875
aF1128.239990234375
aF1031.8800048828125
aF1045.22998046875
aF1060.0
aF1077.3299560546875
aF1090.8599853515625
aF1117.280029296875
aF1138.3599853515625
aF1154.550048828125
aF1174.1500244140625
aF889.8200073242188
aF907.719970703125
aF929.5700073242188
aF950.02001953125
aF964.7899780273438
aF980.7000122070312
aF1001.8699951171875
aF1015.5999755859375
aF1030.3699951171875
aF1038.6099853515625
aF1046.56005859375
aF1065.3699951171875
aF1077.02001953125
aF1092.9200439453125
aF1105.1400146484375
aF1084.1199951171875
aF1104.0
aF1117.3599853515625
aF1137.81005859375
aF1134.6800537109375
aF1151.43994140625
aF1158.8299560546875
aF982.219970703125
aF1007.510009765625
aF1028.530029296875
aF1051.5999755859375
aF1069.2099609375
aF1083.699951171875
aF1100.280029296875
aF1114.5999755859375
aF1129.93994140625
aF1147.760009765625
aF1162.3900146484375
aF1068.0799560546875
aF1085.5799560546875
aF1113.260009765625
aF1125.0400390625
aF1138.4000244140625
aF1150.199951171875
aF1155.6099853515625
aF1002.3099975585938
aF1013.4500122070312
aF1022.6300048828125
aF1033.760009765625
aF1043.949951171875
aF197.3000030517578
aF212.35000610351562
aF230.27999877929688
aF154.3699951171875
aF156.92999267578125
aF168.14999389648438
aF181.9199981689453
aF201.4499969482422
aF219.3800048828125
aF230.30999755859375
aF235.75
aF233.50999450683594
aF236.27999877929688
aF243.9600067138672
aF256.7699890136719
aF267.9800109863281
aF276.94000244140625
aF180.55999755859375
aF192.41000366210938
aF209.05999755859375
aF218.99000549316406
aF227.9499969482422
aF158.13999938964844
aF157.17999267578125
aF160.7100067138672
aF161.99000549316406
aF167.9199981689453
aF178.1999969482422
aF184.61000061035156
aF157.38999938964844
aF161.5500030517578
aF163.8000030517578
aF170.1999969482422
aF166.36000061035156
aF173.39999389648438
aF162.8300018310547
aF172.38999938964844
aF190.0
aF211.77999877929688
aF228.75
aF247.32000732421875
aF166.24000549316406
aF161.1199951171875
aF164.32000732421875
aF167.52000427246094
aF168.16000366210938
aF169.1300048828125
aF174.25
aF121.66999816894531
aF116.2300033569336
aF117.51000213623047
aF125.83000183105469
aF132.24000549316406
aF138.32000732421875
aF147.2899932861328
aF154.72000122070312
aF168.83999633789062
aF112.4800033569336
aF104.16000366210938
aF102.55999755859375
aF96.1500015258789
aF91.02999877929688
aF85.91000366210938
aF79.18000030517578
aF76.62000274658203
aF71.5
aF111.19999694824219
aF99.98999786376953
aF91.66999816894531
aF82.37999725341797
aF71.18000030517578
aF68.2300033569336
aF73.3499984741211
aF81.68000030517578
aF89.68000030517578
aF96.41000366210938
aF103.7699966430664
aF76.2300033569336
aF82.63999938964844
aF72.38999938964844
aa(lp3
S'soma[0]'
p4
aS'dend[0]'
p5
aS'dend[1]'
p6
aS'dend[2]'
p7
aS'dend[2]'
p8
aS'dend[2]'
p9
aS'dend[2]'
p10
aS'dend[2]'
p11
aS'dend[2]'
p12
aS'dend[2]'
p13
aS'dend[3]'
p14
aS'dend[4]'
p15
aS'dend[4]'
p16
aS'dend[4]'
p17
aS'dend[4]'
p18
aS'dend[4]'
p19
aS'dend[5]'
p20
aS'dend[5]'
p21
aS'dend[5]'
p22
aS'dend[5]'
p23
aS'dend[5]'
p24
aS'dend[5]'
p25
aS'dend[5]'
p26
aS'dend[5]'
p27
aS'dend[5]'
p28
aS'dend[6]'
p29
aS'dend[6]'
p30
aS'dend[6]'
p31
aS'dend[6]'
p32
aS'dend[6]'
p33
aS'dend[6]'
p34
aS'dend[6]'
p35
aS'dend[7]'
p36
aS'dend[8]'
p37
aS'dend[9]'
p38
aS'dend[10]'
p39
aS'dend[10]'
p40
aS'dend[10]'
p41
aS'dend[11]'
p42
aS'dend[12]'
p43
aS'dend[13]'
p44
aS'dend[13]'
p45
aS'dend[13]'
p46
aS'dend[13]'
p47
aS'dend[13]'
p48
aS'dend[13]'
p49
aS'dend[13]'
p50
aS'dend[14]'
p51
aS'dend[14]'
p52
aS'dend[14]'
p53
aS'dend[14]'
p54
aS'dend[14]'
p55
aS'dend[14]'
p56
aS'dend[14]'
p57
aS'dend[15]'
p58
aS'dend[15]'
p59
aS'dend[15]'
p60
aS'dend[16]'
p61
aS'dend[17]'
p62
aS'dend[18]'
p63
aS'dend[19]'
p64
aS'dend[20]'
p65
aS'dend[21]'
p66
aS'dend[22]'
p67
aS'dend[22]'
p68
aS'dend[22]'
p69
aS'dend[23]'
p70
aS'dend[24]'
p71
aS'dend[25]'
p72
aS'dend[26]'
p73
aS'dend[27]'
p74
aS'dend[27]'
p75
aS'dend[27]'
p76
aS'dend[28]'
p77
aS'dend[28]'
p78
aS'dend[28]'
p79
aS'dend[28]'
p80
aS'dend[28]'
p81
aS'dend[28]'
p82
aS'dend[28]'
p83
aS'dend[28]'
p84
aS'dend[28]'
p85
aS'dend[29]'
p86
aS'dend[30]'
p87
aS'dend[31]'
p88
aS'dend[31]'
p89
aS'dend[31]'
p90
aS'dend[31]'
p91
aS'dend[31]'
p92
aS'dend[32]'
p93
aS'dend[32]'
p94
aS'dend[32]'
p95
aS'dend[32]'
p96
aS'dend[32]'
p97
aS'dend[33]'
p98
aS'dend[33]'
p99
aS'dend[33]'
p100
aS'dend[33]'
p101
aS'dend[33]'
p102
aS'dend[34]'
p103
aS'dend[35]'
p104
aS'dend[35]'
p105
aS'dend[35]'
p106
aS'dend[35]'
p107
aS'dend[35]'
p108
aS'dend[35]'
p109
aS'dend[35]'
p110
aS'dend[36]'
p111
aS'dend[36]'
p112
aS'dend[36]'
p113
aS'dend[37]'
p114
aS'dend[37]'
p115
aS'dend[37]'
p116
aS'dend[38]'
p117
aS'dend[38]'
p118
aS'dend[38]'
p119
aS'dend[39]'
p120
aS'dend[39]'
p121
aS'dend[39]'
p122
aS'dend[39]'
p123
aS'dend[39]'
p124
aS'dend[40]'
p125
aS'dend[40]'
p126
aS'dend[40]'
p127
aS'dend[40]'
p128
aS'dend[40]'
p129
aS'dend[41]'
p130
aS'dend[42]'
p131
aS'dend[43]'
p132
aS'dend[44]'
p133
aS'dend[44]'
p134
aS'dend[44]'
p135
aS'dend[44]'
p136
aS'dend[44]'
p137
aS'dend[45]'
p138
aS'dend[45]'
p139
aS'dend[45]'
p140
aS'dend[45]'
p141
aS'dend[45]'
p142
aS'dend[45]'
p143
aS'dend[45]'
p144
aS'dend[46]'
p145
aS'dend[47]'
p146
aS'dend[48]'
p147
aS'dend[48]'
p148
aS'dend[48]'
p149
aS'dend[49]'
p150
aS'dend[50]'
p151
aS'dend[51]'
p152
aS'dend[51]'
p153
aS'dend[51]'
p154
aS'dend[52]'
p155
aS'dend[53]'
p156
aS'dend[54]'
p157
aS'dend[54]'
p158
aS'dend[54]'
p159
aS'dend[54]'
p160
aS'dend[54]'
p161
aS'dend[55]'
p162
aS'dend[56]'
p163
aS'dend[56]'
p164
aS'dend[56]'
p165
aS'dend[57]'
p166
aS'dend[58]'
p167
aS'dend[58]'
p168
aS'dend[58]'
p169
aS'dend[58]'
p170
aS'dend[58]'
p171
aS'dend[58]'
p172
aS'dend[58]'
p173
aS'dend[59]'
p174
aS'dend[59]'
p175
aS'dend[59]'
p176
aS'dend[59]'
p177
aS'dend[59]'
p178
aS'dend[59]'
p179
aS'dend[59]'
p180
aS'dend[60]'
p181
aS'dend[60]'
p182
aS'dend[60]'
p183
aS'dend[60]'
p184
aS'dend[60]'
p185
aS'dend[61]'
p186
aS'dend[61]'
p187
aS'dend[61]'
p188
aS'dend[61]'
p189
aS'dend[61]'
p190
aS'dend[62]'
p191
aS'dend[62]'
p192
aS'dend[62]'
p193
aS'dend[62]'
p194
aS'dend[62]'
p195
aS'dend[63]'
p196
aS'dend[64]'
p197
aS'dend[65]'
p198
aS'dend[66]'
p199
aS'dend[66]'
p200
aS'dend[66]'
p201
aS'dend[66]'
p202
aS'dend[66]'
p203
aS'dend[66]'
p204
aS'dend[66]'
p205
aS'dend[67]'
p206
aS'dend[67]'
p207
aS'dend[67]'
p208
aS'dend[67]'
p209
aS'dend[67]'
p210
aS'dend[68]'
p211
aS'dend[68]'
p212
aS'dend[68]'
p213
aS'dend[69]'
p214
aS'dend[69]'
p215
aS'dend[69]'
p216
aS'dend[69]'
p217
aS'dend[69]'
p218
aS'dend[70]'
p219
aS'dend[70]'
p220
aS'dend[70]'
p221
aS'dend[70]'
p222
aS'dend[70]'
p223
aS'dend[70]'
p224
aS'dend[70]'
p225
aS'dend[70]'
p226
aS'dend[70]'
p227
aS'dend[71]'
p228
aS'dend[72]'
p229
aS'dend[72]'
p230
aS'dend[72]'
p231
aS'dend[72]'
p232
aS'dend[72]'
p233
aS'dend[72]'
p234
aS'dend[72]'
p235
aS'dend[72]'
p236
aS'dend[72]'
p237
aS'dend[73]'
p238
aS'dend[74]'
p239
aS'dend[74]'
p240
aS'dend[74]'
p241
aS'dend[74]'
p242
aS'dend[74]'
p243
aS'dend[75]'
p244
aS'dend[76]'
p245
aS'dend[76]'
p246
aS'dend[76]'
p247
aS'dend[77]'
p248
aS'dend[77]'
p249
aS'dend[77]'
p250
aS'dend[78]'
p251
aS'dend[78]'
p252
aS'dend[78]'
p253
aS'dend[79]'
p254
aS'dend[80]'
p255
aS'dend[80]'
p256
aS'dend[80]'
p257
aS'dend[81]'
p258
aS'dend[82]'
p259
aS'dend[82]'
p260
aS'dend[82]'
p261
aS'dend[82]'
p262
aS'dend[82]'
p263
aS'dend[82]'
p264
aS'dend[82]'
p265
aS'dend[83]'
p266
aS'apic[0]'
p267
aS'apic[0]'
p268
aS'apic[0]'
p269
aS'apic[1]'
p270
aS'apic[1]'
p271
aS'apic[1]'
p272
aS'apic[2]'
p273
aS'apic[3]'
p274
aS'apic[3]'
p275
aS'apic[3]'
p276
aS'apic[4]'
p277
aS'apic[5]'
p278
aS'apic[6]'
p279
aS'apic[7]'
p280
aS'apic[8]'
p281
aS'apic[8]'
p282
aS'apic[8]'
p283
aS'apic[9]'
p284
aS'apic[9]'
p285
aS'apic[9]'
p286
aS'apic[9]'
p287
aS'apic[9]'
p288
aS'apic[9]'
p289
aS'apic[9]'
p290
aS'apic[10]'
p291
aS'apic[10]'
p292
aS'apic[10]'
p293
aS'apic[10]'
p294
aS'apic[10]'
p295
aS'apic[11]'
p296
aS'apic[12]'
p297
aS'apic[12]'
p298
aS'apic[12]'
p299
aS'apic[12]'
p300
aS'apic[12]'
p301
aS'apic[13]'
p302
aS'apic[13]'
p303
aS'apic[13]'
p304
aS'apic[13]'
p305
aS'apic[13]'
p306
aS'apic[13]'
p307
aS'apic[13]'
p308
aS'apic[14]'
p309
aS'apic[14]'
p310
aS'apic[14]'
p311
aS'apic[15]'
p312
aS'apic[16]'
p313
aS'apic[17]'
p314
aS'apic[17]'
p315
aS'apic[17]'
p316
aS'apic[17]'
p317
aS'apic[17]'
p318
aS'apic[17]'
p319
aS'apic[17]'
p320
aS'apic[17]'
p321
aS'apic[17]'
p322
aS'apic[18]'
p323
aS'apic[18]'
p324
aS'apic[18]'
p325
aS'apic[18]'
p326
aS'apic[18]'
p327
aS'apic[19]'
p328
aS'apic[19]'
p329
aS'apic[19]'
p330
aS'apic[19]'
p331
aS'apic[19]'
p332
aS'apic[19]'
p333
aS'apic[19]'
p334
aS'apic[19]'
p335
aS'apic[19]'
p336
aS'apic[20]'
p337
aS'apic[20]'
p338
aS'apic[20]'
p339
aS'apic[21]'
p340
aS'apic[22]'
p341
aS'apic[23]'
p342
aS'apic[24]'
p343
aS'apic[25]'
p344
aS'apic[26]'
p345
aS'apic[27]'
p346
aS'apic[28]'
p347
aS'apic[29]'
p348
aS'apic[29]'
p349
aS'apic[29]'
p350
aS'apic[30]'
p351
aS'apic[30]'
p352
aS'apic[30]'
p353
aS'apic[31]'
p354
aS'apic[32]'
p355
aS'apic[33]'
p356
aS'apic[33]'
p357
aS'apic[33]'
p358
aS'apic[33]'
p359
aS'apic[33]'
p360
aS'apic[33]'
p361
aS'apic[33]'
p362
aS'apic[34]'
p363
aS'apic[34]'
p364
aS'apic[34]'
p365
aS'apic[35]'
p366
aS'apic[35]'
p367
aS'apic[35]'
p368
aS'apic[35]'
p369
aS'apic[35]'
p370
aS'apic[36]'
p371
aS'apic[36]'
p372
aS'apic[36]'
p373
aS'apic[36]'
p374
aS'apic[36]'
p375
aS'apic[36]'
p376
aS'apic[36]'
p377
aS'apic[36]'
p378
aS'apic[36]'
p379
aS'apic[36]'
p380
aS'apic[36]'
p381
aS'apic[36]'
p382
aS'apic[36]'
p383
aS'apic[37]'
p384
aS'apic[37]'
p385
aS'apic[37]'
p386
aS'apic[37]'
p387
aS'apic[37]'
p388
aS'apic[37]'
p389
aS'apic[37]'
p390
aS'apic[37]'
p391
aS'apic[37]'
p392
aS'apic[37]'
p393
aS'apic[37]'
p394
aS'apic[37]'
p395
aS'apic[37]'
p396
aS'apic[38]'
p397
aS'apic[38]'
p398
aS'apic[38]'
p399
aS'apic[38]'
p400
aS'apic[38]'
p401
aS'apic[39]'
p402
aS'apic[39]'
p403
aS'apic[39]'
p404
aS'apic[40]'
p405
aS'apic[40]'
p406
aS'apic[40]'
p407
aS'apic[40]'
p408
aS'apic[40]'
p409
aS'apic[40]'
p410
aS'apic[40]'
p411
aS'apic[40]'
p412
aS'apic[40]'
p413
aS'apic[40]'
p414
aS'apic[40]'
p415
aS'apic[41]'
p416
aS'apic[42]'
p417
aS'apic[42]'
p418
aS'apic[42]'
p419
aS'apic[43]'
p420
aS'apic[44]'
p421
aS'apic[44]'
p422
aS'apic[44]'
p423
aS'apic[44]'
p424
aS'apic[44]'
p425
aS'apic[45]'
p426
aS'apic[45]'
p427
aS'apic[45]'
p428
aS'apic[46]'
p429
aS'apic[47]'
p430
aS'apic[48]'
p431
aS'apic[49]'
p432
aS'apic[49]'
p433
aS'apic[49]'
p434
aS'apic[49]'
p435
aS'apic[49]'
p436
aS'apic[49]'
p437
aS'apic[49]'
p438
aS'apic[50]'
p439
aS'apic[50]'
p440
aS'apic[50]'
p441
aS'apic[51]'
p442
aS'apic[51]'
p443
aS'apic[51]'
p444
aS'apic[51]'
p445
aS'apic[51]'
p446
aS'apic[51]'
p447
aS'apic[51]'
p448
aS'apic[51]'
p449
aS'apic[51]'
p450
aS'apic[51]'
p451
aS'apic[51]'
p452
aS'apic[52]'
p453
aS'apic[52]'
p454
aS'apic[52]'
p455
aS'apic[52]'
p456
aS'apic[52]'
p457
aS'apic[53]'
p458
aS'apic[53]'
p459
aS'apic[53]'
p460
aS'apic[53]'
p461
aS'apic[53]'
p462
aS'apic[53]'
p463
aS'apic[53]'
p464
aS'apic[53]'
p465
aS'apic[53]'
p466
aS'apic[54]'
p467
aS'apic[55]'
p468
aS'apic[56]'
p469
aS'apic[57]'
p470
aS'apic[58]'
p471
aS'apic[59]'
p472
aS'apic[60]'
p473
aS'apic[60]'
p474
aS'apic[60]'
p475
aS'apic[60]'
p476
aS'apic[60]'
p477
aS'apic[60]'
p478
aS'apic[60]'
p479
aS'apic[60]'
p480
aS'apic[60]'
p481
aS'apic[60]'
p482
aS'apic[60]'
p483
aS'apic[61]'
p484
aS'apic[61]'
p485
aS'apic[61]'
p486
aS'apic[61]'
p487
aS'apic[61]'
p488
aS'apic[61]'
p489
aS'apic[61]'
p490
aS'apic[61]'
p491
aS'apic[61]'
p492
aS'apic[62]'
p493
aS'apic[63]'
p494
aS'apic[63]'
p495
aS'apic[63]'
p496
aS'apic[63]'
p497
aS'apic[63]'
p498
aS'apic[63]'
p499
aS'apic[63]'
p500
aS'apic[63]'
p501
aS'apic[63]'
p502
aS'apic[64]'
p503
aS'apic[64]'
p504
aS'apic[64]'
p505
aS'apic[64]'
p506
aS'apic[64]'
p507
aS'apic[65]'
p508
aS'apic[66]'
p509
aS'apic[67]'
p510
aS'apic[67]'
p511
aS'apic[67]'
p512
aS'apic[67]'
p513
aS'apic[67]'
p514
aS'apic[67]'
p515
aS'apic[67]'
p516
aS'apic[67]'
p517
aS'apic[67]'
p518
aS'apic[68]'
p519
aS'apic[68]'
p520
aS'apic[68]'
p521
aS'apic[68]'
p522
aS'apic[68]'
p523
aS'apic[69]'
p524
aS'apic[69]'
p525
aS'apic[69]'
p526
aS'apic[69]'
p527
aS'apic[69]'
p528
aS'apic[69]'
p529
aS'apic[69]'
p530
aS'apic[70]'
p531
aS'apic[70]'
p532
aS'apic[70]'
p533
aS'apic[71]'
p534
aS'apic[71]'
p535
aS'apic[71]'
p536
aS'apic[72]'
p537
aS'apic[73]'
p538
aS'apic[73]'
p539
aS'apic[73]'
p540
aS'apic[74]'
p541
aS'apic[75]'
p542
aS'apic[75]'
p543
aS'apic[75]'
p544
aS'apic[76]'
p545
aS'apic[76]'
p546
aS'apic[76]'
p547
aS'apic[76]'
p548
aS'apic[76]'
p549
aS'apic[76]'
p550
aS'apic[76]'
p551
aS'apic[77]'
p552
aS'apic[77]'
p553
aS'apic[77]'
p554
aS'apic[77]'
p555
aS'apic[77]'
p556
aS'apic[77]'
p557
aS'apic[77]'
p558
aS'apic[78]'
p559
aS'apic[78]'
p560
aS'apic[78]'
p561
aS'apic[78]'
p562
aS'apic[78]'
p563
aS'apic[79]'
p564
aS'apic[79]'
p565
aS'apic[79]'
p566
aS'apic[80]'
p567
aS'apic[81]'
p568
aS'apic[82]'
p569
aS'apic[83]'
p570
aS'apic[83]'
p571
aS'apic[83]'
p572
aS'apic[84]'
p573
aS'apic[84]'
p574
aS'apic[84]'
p575
aS'apic[85]'
p576
aS'apic[85]'
p577
aS'apic[85]'
p578
aS'apic[85]'
p579
aS'apic[85]'
p580
aS'apic[86]'
p581
aS'apic[86]'
p582
aS'apic[86]'
p583
aS'apic[86]'
p584
aS'apic[86]'
p585
aS'apic[87]'
p586
aS'apic[87]'
p587
aS'apic[87]'
p588
aS'apic[87]'
p589
aS'apic[87]'
p590
aS'apic[87]'
p591
aS'apic[87]'
p592
aS'apic[88]'
p593
aS'apic[89]'
p594
aS'apic[89]'
p595
aS'apic[89]'
p596
aS'apic[90]'
p597
aS'apic[91]'
p598
aS'apic[92]'
p599
aS'apic[93]'
p600
aS'apic[93]'
p601
aS'apic[93]'
p602
aS'apic[93]'
p603
aS'apic[93]'
p604
aS'apic[94]'
p605
aS'apic[95]'
p606
aS'apic[95]'
p607
aS'apic[95]'
p608
aS'apic[96]'
p609
aS'apic[97]'
p610
aS'apic[98]'
p611
aS'apic[99]'
p612
aS'apic[100]'
p613
aS'apic[101]'
p614
aS'apic[101]'
p615
aS'apic[101]'
p616
aS'apic[101]'
p617
aS'apic[101]'
p618
aS'apic[101]'
p619
aS'apic[101]'
p620
aS'apic[102]'
p621
aS'apic[102]'
p622
aS'apic[102]'
p623
aS'apic[102]'
p624
aS'apic[102]'
p625
aS'apic[102]'
p626
aS'apic[102]'
p627
aS'apic[102]'
p628
aS'apic[102]'
p629
aS'apic[103]'
p630
aS'apic[103]'
p631
aS'apic[103]'
p632
aS'apic[103]'
p633
aS'apic[103]'
p634
aS'apic[104]'
p635
aS'apic[105]'
p636
aS'apic[105]'
p637
aS'apic[105]'
p638
aS'apic[105]'
p639
aS'apic[105]'
p640
aS'apic[106]'
p641
aS'apic[107]'
p642
aS'apic[108]'
p643
aa.